target datalayout = "e-m:e-p270:32:32-p271:32:32-p272:64:64-i64:64-i128:128-f80:128-n8:16:32:64-S128"
target triple = "x86_64-pc-linux-gnu"

; Function Attrs: nounwind uwtable
define internal void @x8_setup_spatial_compensation(ptr noalias noundef %0, ptr noalias noundef %1, i64 noundef %2, ptr noundef %3, ptr noundef %4, i32 noundef %5) #1 {
  %7 = alloca ptr, align 8
  %8 = alloca ptr, align 8
  %9 = alloca i64, align 8
  %10 = alloca ptr, align 8
  %11 = alloca ptr, align 8
  %12 = alloca i32, align 4
  %13 = alloca ptr, align 8
  %14 = alloca i32, align 4
  %15 = alloca i32, align 4
  %16 = alloca i32, align 4
  %17 = alloca i32, align 4
  %18 = alloca i8, align 1
  %19 = alloca i32, align 4
  %20 = alloca i32, align 4
  %21 = alloca i8, align 1
  store ptr %0, ptr %7, align 8, !tbaa !14
  store ptr %1, ptr %8, align 8, !tbaa !14
  store i64 %2, ptr %9, align 8, !tbaa !16
  store ptr %3, ptr %10, align 8, !tbaa !20
  store ptr %4, ptr %11, align 8, !tbaa !20
  store i32 %5, ptr %12, align 4, !tbaa !18
  call void @llvm.lifetime.start.p0(i64 8, ptr %13) #6
  call void @llvm.lifetime.start.p0(i64 4, ptr %14) #6
  call void @llvm.lifetime.start.p0(i64 4, ptr %15) #6
  call void @llvm.lifetime.start.p0(i64 4, ptr %16) #6
  call void @llvm.lifetime.start.p0(i64 4, ptr %17) #6
  call void @llvm.lifetime.start.p0(i64 1, ptr %18) #6
  %22 = load i32, ptr %12, align 4, !tbaa !18
  %23 = and i32 %22, 3
  %24 = icmp eq i32 %23, 3
  br i1 %24, label %25, label %29

25:                                               ; preds = %6
  %26 = load ptr, ptr %11, align 8, !tbaa !20
  store i32 2432, ptr %26, align 4, !tbaa !18
  %27 = load ptr, ptr %10, align 8, !tbaa !20
  store i32 0, ptr %27, align 4, !tbaa !18
  %28 = load ptr, ptr %8, align 8, !tbaa !14
  call void @llvm.memset.p0.i64(ptr align 1 %28, i8 -128, i64 41, i1 false)
  store i32 1, ptr %19, align 4
  br label %220

29:                                               ; preds = %6
  store i32 256, ptr %16, align 4, !tbaa !18
  store i32 -1, ptr %17, align 4, !tbaa !18
  store i32 0, ptr %14, align 4, !tbaa !18
  %30 = load i32, ptr %12, align 4, !tbaa !18
  %31 = and i32 %30, 1
  %32 = icmp ne i32 %31, 0
  br i1 %32, label %90, label %33

33:                                               ; preds = %29
  %34 = load ptr, ptr %7, align 8, !tbaa !14
  %35 = getelementptr inbounds i8, ptr %34, i64 -1
  store ptr %35, ptr %13, align 8, !tbaa !14
  store i32 7, ptr %15, align 4, !tbaa !18
  br label %36

36:                                               ; preds = %86, %33
  %37 = load i32, ptr %15, align 4, !tbaa !18
  %38 = icmp sge i32 %37, 0
  br i1 %38, label %39, label %89

39:                                               ; preds = %36
  %40 = load ptr, ptr %13, align 8, !tbaa !14
  %41 = getelementptr inbounds i8, ptr %40, i64 -1
  %42 = load i8, ptr %41, align 1, !tbaa !22
  store i8 %42, ptr %18, align 1, !tbaa !22
  %43 = load i8, ptr %18, align 1, !tbaa !22
  %44 = load ptr, ptr %8, align 8, !tbaa !14
  %45 = load i32, ptr %15, align 4, !tbaa !18
  %46 = add nsw i32 0, %45
  %47 = sext i32 %46 to i64
  %48 = getelementptr inbounds i8, ptr %44, i64 %47
  store i8 %43, ptr %48, align 1, !tbaa !22
  %49 = load ptr, ptr %13, align 8, !tbaa !14
  %50 = load i8, ptr %49, align 1, !tbaa !22
  store i8 %50, ptr %18, align 1, !tbaa !22
  %51 = load i8, ptr %18, align 1, !tbaa !22
  %52 = zext i8 %51 to i32
  %53 = load i32, ptr %14, align 4, !tbaa !18
  %54 = add nsw i32 %53, %52
  store i32 %54, ptr %14, align 4, !tbaa !18
  %55 = load i32, ptr %16, align 4, !tbaa !18
  %56 = load i8, ptr %18, align 1, !tbaa !22
  %57 = zext i8 %56 to i32
  %58 = icmp sgt i32 %55, %57
  br i1 %58, label %59, label %62

59:                                               ; preds = %39
  %60 = load i8, ptr %18, align 1, !tbaa !22
  %61 = zext i8 %60 to i32
  br label %64

62:                                               ; preds = %39
  %63 = load i32, ptr %16, align 4, !tbaa !18
  br label %64

64:                                               ; preds = %62, %59
  %65 = phi i32 [ %61, %59 ], [ %63, %62 ]
  store i32 %65, ptr %16, align 4, !tbaa !18
  %66 = load i32, ptr %17, align 4, !tbaa !18
  %67 = load i8, ptr %18, align 1, !tbaa !22
  %68 = zext i8 %67 to i32
  %69 = icmp sgt i32 %66, %68
  br i1 %69, label %70, label %72

70:                                               ; preds = %64
  %71 = load i32, ptr %17, align 4, !tbaa !18
  br label %75

72:                                               ; preds = %64
  %73 = load i8, ptr %18, align 1, !tbaa !22
  %74 = zext i8 %73 to i32
  br label %75

75:                                               ; preds = %72, %70
  %76 = phi i32 [ %71, %70 ], [ %74, %72 ]
  store i32 %76, ptr %17, align 4, !tbaa !18
  %77 = load i8, ptr %18, align 1, !tbaa !22
  %78 = load ptr, ptr %8, align 8, !tbaa !14
  %79 = load i32, ptr %15, align 4, !tbaa !18
  %80 = add nsw i32 8, %79
  %81 = sext i32 %80 to i64
  %82 = getelementptr inbounds i8, ptr %78, i64 %81
  store i8 %77, ptr %82, align 1, !tbaa !22
  %83 = load i64, ptr %9, align 8, !tbaa !16
  %84 = load ptr, ptr %13, align 8, !tbaa !14
  %85 = getelementptr inbounds i8, ptr %84, i64 %83
  store ptr %85, ptr %13, align 8, !tbaa !14
  br label %86

86:                                               ; preds = %75
  %87 = load i32, ptr %15, align 4, !tbaa !18
  %88 = add nsw i32 %87, -1
  store i32 %88, ptr %15, align 4, !tbaa !18
  br label %36, !llvm.loop !23

89:                                               ; preds = %36
  br label %90

90:                                               ; preds = %89, %29
  %91 = load i32, ptr %12, align 4, !tbaa !18
  %92 = and i32 %91, 2
  %93 = icmp ne i32 %92, 0
  br i1 %93, label %161, label %94

94:                                               ; preds = %90
  %95 = load ptr, ptr %7, align 8, !tbaa !14
  %96 = load i64, ptr %9, align 8, !tbaa !16
  %97 = sub i64 0, %96
  %98 = getelementptr inbounds i8, ptr %95, i64 %97
  store ptr %98, ptr %13, align 8, !tbaa !14
  store i32 0, ptr %15, align 4, !tbaa !18
  br label %99

99:                                               ; preds = %134, %94
  %100 = load i32, ptr %15, align 4, !tbaa !18
  %101 = icmp slt i32 %100, 8
  br i1 %101, label %102, label %137

102:                                              ; preds = %99
  %103 = load ptr, ptr %13, align 8, !tbaa !14
  %104 = load i32, ptr %15, align 4, !tbaa !18
  %105 = sext i32 %104 to i64
  %106 = getelementptr inbounds i8, ptr %103, i64 %105
  %107 = load i8, ptr %106, align 1, !tbaa !22
  store i8 %107, ptr %18, align 1, !tbaa !22
  %108 = load i8, ptr %18, align 1, !tbaa !22
  %109 = zext i8 %108 to i32
  %110 = load i32, ptr %14, align 4, !tbaa !18
  %111 = add nsw i32 %110, %109
  store i32 %111, ptr %14, align 4, !tbaa !18
  %112 = load i32, ptr %16, align 4, !tbaa !18
  %113 = load i8, ptr %18, align 1, !tbaa !22
  %114 = zext i8 %113 to i32
  %115 = icmp sgt i32 %112, %114
  br i1 %115, label %116, label %119

116:                                              ; preds = %102
  %117 = load i8, ptr %18, align 1, !tbaa !22
  %118 = zext i8 %117 to i32
  br label %121

119:                                              ; preds = %102
  %120 = load i32, ptr %16, align 4, !tbaa !18
  br label %121

121:                                              ; preds = %119, %116
  %122 = phi i32 [ %118, %116 ], [ %120, %119 ]
  store i32 %122, ptr %16, align 4, !tbaa !18
  %123 = load i32, ptr %17, align 4, !tbaa !18
  %124 = load i8, ptr %18, align 1, !tbaa !22
  %125 = zext i8 %124 to i32
  %126 = icmp sgt i32 %123, %125
  br i1 %126, label %127, label %129

127:                                              ; preds = %121
  %128 = load i32, ptr %17, align 4, !tbaa !18
  br label %132

129:                                              ; preds = %121
  %130 = load i8, ptr %18, align 1, !tbaa !22
  %131 = zext i8 %130 to i32
  br label %132

132:                                              ; preds = %129, %127
  %133 = phi i32 [ %128, %127 ], [ %131, %129 ]
  store i32 %133, ptr %17, align 4, !tbaa !18
  br label %134

134:                                              ; preds = %132
  %135 = load i32, ptr %15, align 4, !tbaa !18
  %136 = add nsw i32 %135, 1
  store i32 %136, ptr %15, align 4, !tbaa !18
  br label %99, !llvm.loop !25

137:                                              ; preds = %99
  %138 = load i32, ptr %12, align 4, !tbaa !18
  %139 = and i32 %138, 4
  %140 = icmp ne i32 %139, 0
  br i1 %140, label %141, label %150

141:                                              ; preds = %137
  %142 = load ptr, ptr %8, align 8, !tbaa !14
  %143 = getelementptr inbounds i8, ptr %142, i64 25
  %144 = load i8, ptr %18, align 1, !tbaa !22
  %145 = zext i8 %144 to i32
  %146 = trunc i32 %145 to i8
  call void @llvm.memset.p0.i64(ptr align 1 %143, i8 %146, i64 8, i1 false)
  %147 = load ptr, ptr %8, align 8, !tbaa !14
  %148 = getelementptr inbounds i8, ptr %147, i64 17
  %149 = load ptr, ptr %13, align 8, !tbaa !14
  call void @llvm.memcpy.p0.p0.i64(ptr align 1 %148, ptr align 1 %149, i64 8, i1 false)
  br label %154

150:                                              ; preds = %137
  %151 = load ptr, ptr %8, align 8, !tbaa !14
  %152 = getelementptr inbounds i8, ptr %151, i64 17
  %153 = load ptr, ptr %13, align 8, !tbaa !14
  call void @llvm.memcpy.p0.p0.i64(ptr align 1 %152, ptr align 1 %153, i64 16, i1 false)
  br label %154

154:                                              ; preds = %150, %141
  %155 = load ptr, ptr %8, align 8, !tbaa !14
  %156 = getelementptr inbounds i8, ptr %155, i64 33
  %157 = load ptr, ptr %13, align 8, !tbaa !14
  %158 = load i64, ptr %9, align 8, !tbaa !16
  %159 = sub i64 0, %158
  %160 = getelementptr inbounds i8, ptr %157, i64 %159
  call void @llvm.memcpy.p0.p0.i64(ptr align 1 %156, ptr align 1 %160, i64 8, i1 false)
  br label %161

161:                                              ; preds = %154, %90
  %162 = load i32, ptr %12, align 4, !tbaa !18
  %163 = and i32 %162, 3
  %164 = icmp ne i32 %163, 0
  br i1 %164, label %165, label %187

165:                                              ; preds = %161
  call void @llvm.lifetime.start.p0(i64 4, ptr %20) #6
  %166 = load i32, ptr %14, align 4, !tbaa !18
  %167 = add nsw i32 %166, 4
  %168 = ashr i32 %167, 3
  store i32 %168, ptr %20, align 4, !tbaa !18
  %169 = load i32, ptr %12, align 4, !tbaa !18
  %170 = and i32 %169, 1
  %171 = icmp ne i32 %170, 0
  br i1 %171, label %172, label %177

172:                                              ; preds = %165
  %173 = load ptr, ptr %8, align 8, !tbaa !14
  %174 = getelementptr inbounds i8, ptr %173, i64 0
  %175 = load i32, ptr %20, align 4, !tbaa !18
  %176 = trunc i32 %175 to i8
  call void @llvm.memset.p0.i64(ptr align 1 %174, i8 %176, i64 17, i1 false)
  br label %182

177:                                              ; preds = %165
  %178 = load ptr, ptr %8, align 8, !tbaa !14
  %179 = getelementptr inbounds i8, ptr %178, i64 16
  %180 = load i32, ptr %20, align 4, !tbaa !18
  %181 = trunc i32 %180 to i8
  call void @llvm.memset.p0.i64(ptr align 1 %179, i8 %181, i64 25, i1 false)
  br label %182

182:                                              ; preds = %177, %172
  %183 = load i32, ptr %20, align 4, !tbaa !18
  %184 = mul nsw i32 %183, 9
  %185 = load i32, ptr %14, align 4, !tbaa !18
  %186 = add nsw i32 %185, %184
  store i32 %186, ptr %14, align 4, !tbaa !18
  call void @llvm.lifetime.end.p0(i64 4, ptr %20) #6
  br label %201

187:                                              ; preds = %161
  call void @llvm.lifetime.start.p0(i64 1, ptr %21) #6
  %188 = load ptr, ptr %7, align 8, !tbaa !14
  %189 = getelementptr inbounds i8, ptr %188, i64 -1
  %190 = load i64, ptr %9, align 8, !tbaa !16
  %191 = sub i64 0, %190
  %192 = getelementptr inbounds i8, ptr %189, i64 %191
  %193 = load i8, ptr %192, align 1, !tbaa !22
  store i8 %193, ptr %21, align 1, !tbaa !22
  %194 = load i8, ptr %21, align 1, !tbaa !22
  %195 = load ptr, ptr %8, align 8, !tbaa !14
  %196 = getelementptr inbounds i8, ptr %195, i64 16
  store i8 %194, ptr %196, align 1, !tbaa !22
  %197 = load i8, ptr %21, align 1, !tbaa !22
  %198 = zext i8 %197 to i32
  %199 = load i32, ptr %14, align 4, !tbaa !18
  %200 = add nsw i32 %199, %198
  store i32 %200, ptr %14, align 4, !tbaa !18
  call void @llvm.lifetime.end.p0(i64 1, ptr %21) #6
  br label %201

201:                                              ; preds = %187, %182
  %202 = load i32, ptr %17, align 4, !tbaa !18
  %203 = load i32, ptr %16, align 4, !tbaa !18
  %204 = sub nsw i32 %202, %203
  %205 = load ptr, ptr %10, align 8, !tbaa !20
  store i32 %204, ptr %205, align 4, !tbaa !18
  %206 = load ptr, ptr %8, align 8, !tbaa !14
  %207 = getelementptr inbounds i8, ptr %206, i64 25
  %208 = load i8, ptr %207, align 1, !tbaa !22
  %209 = zext i8 %208 to i32
  %210 = load ptr, ptr %8, align 8, !tbaa !14
  %211 = getelementptr inbounds i8, ptr %210, i64 25
  %212 = getelementptr inbounds i8, ptr %211, i64 1
  %213 = load i8, ptr %212, align 1, !tbaa !22
  %214 = zext i8 %213 to i32
  %215 = add nsw i32 %209, %214
  %216 = load i32, ptr %14, align 4, !tbaa !18
  %217 = add nsw i32 %216, %215
  store i32 %217, ptr %14, align 4, !tbaa !18
  %218 = load i32, ptr %14, align 4, !tbaa !18
  %219 = load ptr, ptr %11, align 8, !tbaa !20
  store i32 %218, ptr %219, align 4, !tbaa !18
  store i32 0, ptr %19, align 4
  br label %220

220:                                              ; preds = %201, %25
  call void @llvm.lifetime.end.p0(i64 1, ptr %18) #6
  call void @llvm.lifetime.end.p0(i64 4, ptr %17) #6
  call void @llvm.lifetime.end.p0(i64 4, ptr %16) #6
  call void @llvm.lifetime.end.p0(i64 4, ptr %15) #6
  call void @llvm.lifetime.end.p0(i64 4, ptr %14) #6
  call void @llvm.lifetime.end.p0(i64 8, ptr %13) #6
  %221 = load i32, ptr %19, align 4
  switch i32 %221, label %223 [
    i32 0, label %222
    i32 1, label %222
  ]

222:                                              ; preds = %220, %220
  ret void

223:                                              ; preds = %220
  unreachable
}