; Function Attrs: nofree norecurse nosync nounwind memory(argmem: readwrite) uwtable
define internal void @x8_setup_spatial_compensation(ptr noalias noundef readonly captures(none) %0, ptr noalias noundef captures(none) %1, i64 noundef %2, ptr noundef writeonly captures(none) %3, ptr noundef writeonly captures(none) %4, i32 noundef %5) #1 {
  %7 = and i32 %5, 3
  %8 = icmp eq i32 %7, 3
  br i1 %8, label %9, label %10

9:                                                ; preds = %6
  store i32 2432, ptr %4, align 4, !tbaa !12
  store i32 0, ptr %3, align 4, !tbaa !12
  tail call void @llvm.memset.p0.i64(ptr noundef nonnull align 1 dereferenceable(41) %1, i8 -128, i64 41, i1 false)
  br label %76

10:                                               ; preds = %6
  %11 = and i32 %5, 1
  %.not = icmp eq i32 %11, 0
  br i1 %.not, label %12, label %.loopexit

12:                                               ; preds = %10
  %13 = getelementptr inbounds i8, ptr %0, i64 -1
  br label %14

14:                                               ; preds = %12, %14
  %indvars.iv = phi i64 [ 7, %12 ], [ %indvars.iv.next, %14 ]
  %.099 = phi ptr [ %13, %12 ], [ %24, %14 ]
  %.198 = phi i32 [ 0, %12 ], [ %20, %14 ]
  %.18297 = phi i32 [ -1, %12 ], [ %22, %14 ]
  %.18696 = phi i32 [ 256, %12 ], [ %21, %14 ]
  %15 = getelementptr inbounds i8, ptr %.099, i64 -1
  %16 = load i8, ptr %15, align 1, !tbaa !14
  %17 = getelementptr inbounds nuw i8, ptr %1, i64 %indvars.iv
  store i8 %16, ptr %17, align 1, !tbaa !14
  %18 = load i8, ptr %.099, align 1, !tbaa !14
  %19 = zext i8 %18 to i32
  %20 = add nuw nsw i32 %.198, %19
  %21 = tail call i32 @llvm.umin.i32(i32 %.18696, i32 %19)
  %22 = tail call i32 @llvm.smax.i32(i32 %.18297, i32 %19)
  %23 = getelementptr inbounds nuw i8, ptr %17, i64 8
  store i8 %18, ptr %23, align 1, !tbaa !14
  %24 = getelementptr inbounds i8, ptr %.099, i64 %2
  %indvars.iv.next = add nsw i64 %indvars.iv, -1
  %.not114 = icmp eq i64 %indvars.iv, 0
  br i1 %.not114, label %.loopexit, label %14, !llvm.loop !15

.loopexit:                                        ; preds = %14, %10
  %.085 = phi i32 [ 256, %10 ], [ %21, %14 ]
  %.081 = phi i32 [ -1, %10 ], [ %22, %14 ]
  %.077 = phi i32 [ 0, %10 ], [ %20, %14 ]
  %25 = and i32 %5, 2
  %.not92 = icmp eq i32 %25, 0
  br i1 %.not92, label %26, label %48

26:                                               ; preds = %.loopexit
  %27 = sub i64 0, %2
  %28 = getelementptr inbounds i8, ptr %0, i64 %27
  br label %29

29:                                               ; preds = %26, %29
  %indvars.iv111 = phi i64 [ 0, %26 ], [ %indvars.iv.next112, %29 ]
  %.3103 = phi i32 [ %.077, %26 ], [ %33, %29 ]
  %.384102 = phi i32 [ %.081, %26 ], [ %35, %29 ]
  %.388101 = phi i32 [ %.085, %26 ], [ %34, %29 ]
  %30 = getelementptr inbounds nuw i8, ptr %28, i64 %indvars.iv111
  %31 = load i8, ptr %30, align 1, !tbaa !14
  %32 = zext i8 %31 to i32
  %33 = add nsw i32 %.3103, %32
  %34 = tail call i32 @llvm.smin.i32(i32 %.388101, i32 %32)
  %35 = tail call i32 @llvm.smax.i32(i32 %.384102, i32 %32)
  %indvars.iv.next112 = add nuw nsw i64 %indvars.iv111, 1
  %exitcond.not = icmp eq i64 %indvars.iv.next112, 8
  br i1 %exitcond.not, label %36, label %29, !llvm.loop !17

36:                                               ; preds = %29
  %37 = and i32 %5, 4
  %.not93 = icmp eq i32 %37, 0
  br i1 %.not93, label %42, label %38

38:                                               ; preds = %36
  %39 = getelementptr inbounds nuw i8, ptr %1, i64 25
  tail call void @llvm.memset.p0.i64(ptr noundef nonnull align 1 dereferenceable(8) %39, i8 %31, i64 8, i1 false)
  %40 = getelementptr inbounds nuw i8, ptr %1, i64 17
  %41 = load i64, ptr %28, align 1
  store i64 %41, ptr %40, align 1
  br label %44

42:                                               ; preds = %36
  %43 = getelementptr inbounds nuw i8, ptr %1, i64 17
  tail call void @llvm.memcpy.p0.p0.i64(ptr noundef nonnull align 1 dereferenceable(16) %43, ptr noundef nonnull align 1 dereferenceable(16) %28, i64 16, i1 false)
  br label %44

44:                                               ; preds = %42, %38
  %45 = getelementptr inbounds nuw i8, ptr %1, i64 33
  %46 = getelementptr inbounds i8, ptr %28, i64 %27
  %47 = load i64, ptr %46, align 1
  store i64 %47, ptr %45, align 1
  br label %48

48:                                               ; preds = %44, %.loopexit
  %.287 = phi i32 [ %.085, %.loopexit ], [ %34, %44 ]
  %.283 = phi i32 [ %.081, %.loopexit ], [ %35, %44 ]
  %.2 = phi i32 [ %.077, %.loopexit ], [ %33, %44 ]
  %.not94 = icmp eq i32 %7, 0
  br i1 %.not94, label %59, label %49

49:                                               ; preds = %48
  %50 = add nsw i32 %.2, 4
  %51 = ashr i32 %50, 3
  br i1 %.not, label %54, label %52

52:                                               ; preds = %49
  %53 = trunc i32 %51 to i8
  tail call void @llvm.memset.p0.i64(ptr noundef nonnull align 1 dereferenceable(17) %1, i8 %53, i64 17, i1 false)
  br label %57

54:                                               ; preds = %49
  %55 = getelementptr inbounds nuw i8, ptr %1, i64 16
  %56 = trunc i32 %51 to i8
  tail call void @llvm.memset.p0.i64(ptr noundef nonnull align 1 dereferenceable(25) %55, i8 %56, i64 25, i1 false)
  br label %57

57:                                               ; preds = %54, %52
  %58 = mul nsw i32 %51, 9
  br label %66

59:                                               ; preds = %48
  %60 = getelementptr inbounds i8, ptr %0, i64 -1
  %61 = sub i64 0, %2
  %62 = getelementptr inbounds i8, ptr %60, i64 %61
  %63 = load i8, ptr %62, align 1, !tbaa !14
  %64 = getelementptr inbounds nuw i8, ptr %1, i64 16
  store i8 %63, ptr %64, align 1, !tbaa !14
  %65 = zext i8 %63 to i32
  br label %66

66:                                               ; preds = %59, %57
  %.pn = phi i32 [ %58, %57 ], [ %65, %59 ]
  %67 = sub nsw i32 %.283, %.287
  store i32 %67, ptr %3, align 4, !tbaa !12
  %68 = getelementptr inbounds nuw i8, ptr %1, i64 25
  %69 = load i8, ptr %68, align 1, !tbaa !14
  %70 = zext i8 %69 to i32
  %71 = getelementptr inbounds nuw i8, ptr %1, i64 26
  %72 = load i8, ptr %71, align 1, !tbaa !14
  %73 = zext i8 %72 to i32
  %74 = add i32 %.pn, %.2
  %.4 = add i32 %74, %70
  %75 = add i32 %.4, %73
  store i32 %75, ptr %4, align 4, !tbaa !12
  br label %76

76:                                               ; preds = %66, %9
  ret void
}